(dp0
S'METTS MARK'
p1
(dp2
S'to_messages'
p3
I807
sS'deferral_payments'
p4
S'NaN'
p5
sS'expenses'
p6
I94299
sS'poi'
p7
I00
sS'deferred_income'
p8
g5
sS'bonus_salary_ratio'
p9
F1.6402943781644013
sS'long_term_incentive'
p10
g5
sS'email_address'
p11
S'mark.metts@enron.com'
p12
sS'restricted_stock_deferred'
p13
g5
sS'shared_receipt_with_poi'
p14
I702
sS'loan_advances'
p15
g5
sS'from_messages'
p16
I29
sS'other'
p17
I1740
sS'to_poi_ratio'
p18
F0.02631578947368421
sS'director_fees'
p19
g5
sS'bonus'
p20
I600000
sS'total_stock_value'
p21
I585062
sS'from_poi_to_this_person'
p22
I38
sS'from_this_person_to_poi'
p23
I1
sS'deferred_income_salary_ratio'
p24
S'NaN'
p25
sS'from_poi_ratio'
p26
F38.0
sS'restricted_stock'
p27
I585062
sS'salary'
p28
I365788
sS'total_payments'
p29
I1061827
sS'exercised_stock_options'
p30
g5
ssS'BAXTER JOHN C'
p31
(dp32
g3
g5
sg4
I1295738
sg6
I11200
sg7
I00
sg8
I-1386055
sg9
F4.492665723206865
sg10
I1586055
sg11
g5
sg13
g5
sg14
g5
sg15
g5
sg16
g5
sg17
I2660303
sg18
g25
sg19
g5
sg20
I1200000
sg21
I10623258
sg22
g5
sg23
g5
sg24
F-5.189234824149576
sg26
g25
sg27
I3942714
sg28
I267102
sg29
I5634343
sg30
I6680544
ssS'ELLIOTT STEVEN'
p33
(dp34
g3
g5
sg4
g5
sg6
I78552
sg7
I00
sg8
I-400729
sg9
F2.047490069673162
sg10
g5
sg11
S'steven.elliott@enron.com'
p35
sg13
g5
sg14
g5
sg15
g5
sg16
g5
sg17
I12961
sg18
g25
sg19
g5
sg20
I350000
sg21
I6678735
sg22
g5
sg23
g5
sg24
F-2.34425328037159
sg26
g25
sg27
I1788391
sg28
I170941
sg29
I211725
sg30
I4890344
ssS'CORDES WILLIAM R'
p36
(dp37
g3
I764
sg4
g5
sg6
g5
sg7
I00
sg8
g5
sg9
g25
sg10
g5
sg11
S'bill.cordes@enron.com'
p38
sg13
g5
sg14
I58
sg15
g5
sg16
I12
sg17
g5
sg18
g25
sg19
g5
sg20
g5
sg21
I1038185
sg22
I10
sg23
I0
sg24
g25
sg26
g25
sg27
I386335
sg28
g5
sg29
g5
sg30
I651850
ssS'HANNON KEVIN P'
p39
(dp40
g3
I1045
sg4
g5
sg6
I34039
sg7
I01
sg8
I-3117011
sg9
F6.165405498719651
sg10
I1617011
sg11
S'kevin.hannon@enron.com'
p41
sg13
g5
sg14
I1035
sg15
g5
sg16
I32
sg17
I11350
sg18
F0.65625
sg19
g5
sg20
I1500000
sg21
I6391065
sg22
I32
sg23
I21
sg24
F-12.811757839313092
sg26
F1.5238095238095237
sg27
I853064
sg28
I243293
sg29
I288682
sg30
I5538001
ssS'MORDAUNT KRISTINA M'
p42
(dp43
g3
g5
sg4
g5
sg6
I35018
sg7
I00
sg8
g5
sg9
F1.2168046335920448
sg10
g5
sg11
S'kristina.mordaunt@enron.com'
p44
sg13
g5
sg14
g5
sg15
g5
sg16
g5
sg17
I1411
sg18
g25
sg19
g5
sg20
I325000
sg21
I208510
sg22
g5
sg23
g5
sg24
g25
sg26
g25
sg27
I208510
sg28
I267093
sg29
I628522
sg30
g5
ssS'MEYER ROCKFORD G'
p45
(dp46
g3
I232
sg4
I1848227
sg6
g5
sg7
I00
sg8
g5
sg9
g25
sg10
g5
sg11
S'rockford.meyer@enron.com'
p47
sg13
g5
sg14
I22
sg15
g5
sg16
I28
sg17
g5
sg18
g25
sg19
g5
sg20
g5
sg21
I955873
sg22
I0
sg23
I0
sg24
g25
sg26
g25
sg27
I462384
sg28
g5
sg29
I1848227
sg30
I493489
ssS'MCMAHON JEFFREY'
p48
(dp49
g3
I2355
sg4
g5
sg6
I137108
sg7
I00
sg8
g5
sg9
F7.018528916339135
sg10
I694862
sg11
S'jeffrey.mcmahon@enron.com'
p50
sg13
g5
sg14
I2228
sg15
g5
sg16
I48
sg17
I297353
sg18
F0.4482758620689655
sg19
g5
sg20
I2600000
sg21
I1662855
sg22
I58
sg23
I26
sg24
g25
sg26
F2.230769230769231
sg27
I558801
sg28
I370448
sg29
I4099771
sg30
I1104054
ssS'HORTON STANLEY C'
p51
(dp52
g3
I2350
sg4
I3131860
sg6
g5
sg7
I00
sg8
g5
sg9
g25
sg10
g5
sg11
S'stanley.horton@enron.com'
p53
sg13
g5
sg14
I1074
sg15
g5
sg16
I1073
sg17
g5
sg18
F0.3409090909090909
sg19
g5
sg20
g5
sg21
I7256648
sg22
I44
sg23
I15
sg24
g25
sg26
F2.933333333333333
sg27
I2046079
sg28
g5
sg29
I3131860
sg30
I5210569
ssS'PIPER GREGORY F'
p54
(dp55
g3
I1238
sg4
I1130036
sg6
I43057
sg7
I00
sg8
I-33333
sg9
F2.0295193590777862
sg10
g5
sg11
S'greg.piper@enron.com'
p56
sg13
I-409554
sg14
I742
sg15
g5
sg16
I222
sg17
I778
sg18
F0.7868852459016393
sg19
g5
sg20
I400000
sg21
I880290
sg22
I61
sg23
I48
sg24
F-0.16912492199034965
sg26
F1.2708333333333333
sg27
I409554
sg28
I197091
sg29
I1737629
sg30
I880290
ssS'HUMPHREY GENE E'
p57
(dp58
g3
I128
sg4
I2964506
sg6
I4994
sg7
I00
sg8
g5
sg9
g25
sg10
g5
sg11
S'gene.humphrey@enron.com'
p59
sg13
g5
sg14
I119
sg15
g5
sg16
I17
sg17
g5
sg18
F1.7
sg19
g5
sg20
g5
sg21
I2282768
sg22
I10
sg23
I17
sg24
g25
sg26
F0.5882352941176471
sg27
g5
sg28
I130724
sg29
I3100224
sg30
I2282768
ssS'UMANOFF ADAM S'
p60
(dp61
g3
I111
sg4
g5
sg6
I53122
sg7
I00
sg8
g5
sg9
F2.7331256562100426
sg10
g5
sg11
S'adam.umanoff@enron.com'
p62
sg13
g5
sg14
I41
sg15
g5
sg16
I18
sg17
g5
sg18
g25
sg19
g5
sg20
I788750
sg21
g5
sg22
I12
sg23
I0
sg24
g25
sg26
g25
sg27
g5
sg28
I288589
sg29
I1130461
sg30
g5
ssS'BLACHMAN JEREMY M'
p63
(dp64
g3
I2475
sg4
g5
sg6
I84208
sg7
I00
sg8
g5
sg9
F3.419890080709406
sg10
I831809
sg11
S'jeremy.blachman@enron.com'
p65
sg13
g5
sg14
I2326
sg15
g5
sg16
I14
sg17
I272
sg18
F0.08
sg19
g5
sg20
I850000
sg21
I954354
sg22
I25
sg23
I2
sg24
g25
sg26
F12.5
sg27
I189041
sg28
I248546
sg29
I2014835
sg30
I765313
ssS'SUNDE MARTIN'
p66
(dp67
g3
I2647
sg4
g5
sg6
g5
sg7
I00
sg8
g5
sg9
F2.7185944090164127
sg10
I476451
sg11
S'marty.sunde@enron.com'
p68
sg13
g5
sg14
I2565
sg15
g5
sg16
I38
sg17
I111122
sg18
F0.35135135135135137
sg19
g5
sg20
I700000
sg21
I698920
sg22
I37
sg23
I13
sg24
g25
sg26
F2.8461538461538463
sg27
I698920
sg28
I257486
sg29
I1545059
sg30
g5
ssS'GIBBS DANA R'
p69
(dp70
g3
I169
sg4
I504610
sg6
g5
sg7
I00
sg8
g5
sg9
g25
sg10
I461912
sg11
S'dana.gibbs@enron.com'
p71
sg13
g5
sg14
I23
sg15
g5
sg16
I12
sg17
g5
sg18
g25
sg19
g5
sg20
g5
sg21
I2218275
sg22
I0
sg23
I0
sg24
g25
sg26
g25
sg27
g5
sg28
g5
sg29
I966522
sg30
I2218275
ssS'LOWRY CHARLES P'
p72
(dp73
g3
g5
sg4
g5
sg6
g5
sg7
I00
sg8
g5
sg9
g25
sg10
g5
sg11
g5
sg13
I-153686
sg14
g5
sg15
g5
sg16
g5
sg17
g5
sg18
g25
sg19
g5
sg20
g5
sg21
I372205
sg22
g5
sg23
g5
sg24
g25
sg26
g25
sg27
I153686
sg28
g5
sg29
g5
sg30
I372205
ssS'COLWELL WESLEY'
p74
(dp75
g3
I1758
sg4
I27610
sg6
I16514
sg7
I01
sg8
I-144062
sg9
F4.158839960906905
sg10
g5
sg11
S'wes.colwell@enron.com'
p76
sg13
g5
sg14
I1132
sg15
g5
sg16
I40
sg17
I101740
sg18
F0.04583333333333333
sg19
g5
sg20
I1200000
sg21
I698242
sg22
I240
sg23
I11
sg24
F-0.49927566870680873
sg26
F21.818181818181817
sg27
I698242
sg28
I288542
sg29
I1490344
sg30
g5
ssS'MULLER MARK S'
p77
(dp78
g3
I136
sg4
I842924
sg6
g5
sg7
I00
sg8
I-719000
sg9
F4.3710809285765375
sg10
I1725545
sg11
S's..muller@enron.com'
p79
sg13
g5
sg14
I114
sg15
g5
sg16
I16
sg17
I947
sg18
g25
sg19
g5
sg20
I1100000
sg21
I1416848
sg22
I12
sg23
I0
sg24
F-2.857097443315028
sg26
g25
sg27
I360528
sg28
I251654
sg29
I3202070
sg30
I1056320
ssS'JACKSON CHARLENE R'
p80
(dp81
g3
I258
sg4
g5
sg6
I10181
sg7
I00
sg8
g5
sg9
F0.8663769502145149
sg10
g5
sg11
S'charlene.jackson@enron.com'
p82
sg13
g5
sg14
I117
sg15
g5
sg16
I56
sg17
I2435
sg18
F0.76
sg19
g5
sg20
I250000
sg21
I725735
sg22
I25
sg23
I19
sg24
g25
sg26
F1.3157894736842106
sg27
I540672
sg28
I288558
sg29
I551174
sg30
I185063
ssS'WESTFAHL RICHARD K'
p83
(dp84
g3
g5
sg4
g5
sg6
I51870
sg7
I00
sg8
I-10800
sg9
g25
sg10
I256191
sg11
S'dick.westfahl@enron.com'
p85
sg13
g5
sg14
g5
sg15
g5
sg16
g5
sg17
I401130
sg18
g25
sg19
g5
sg20
g5
sg21
I384930
sg22
g5
sg23
g5
sg24
F-0.1694277108433735
sg26
g25
sg27
I384930
sg28
I63744
sg29
I762135
sg30
g5
ssS'WALTERS GARETH W'
p86
(dp87
g3
g5
sg4
I53625
sg6
I33785
sg7
I00
sg8
g5
sg9
g25
sg10
g5
sg11
g5
sg13
g5
sg14
g5
sg15
g5
sg16
g5
sg17
g5
sg18
g25
sg19
g5
sg20
g5
sg21
I1030329
sg22
g5
sg23
g5
sg24
g25
sg26
g25
sg27
g5
sg28
g5
sg29
I87410
sg30
I1030329
ssS'WALLS JR ROBERT H'
p88
(dp89
g3
I671
sg4
g5
sg6
I50936
sg7
I00
sg8
g5
sg9
F2.380345626184922
sg10
I540751
sg11
S'rob.walls@enron.com'
p90
sg13
g5
sg14
I215
sg15
g5
sg16
I146
sg17
I2
sg18
g25
sg19
g5
sg20
I850000
sg21
I5898997
sg22
I17
sg23
I0
sg24
g25
sg26
g25
sg27
I1552453
sg28
I357091
sg29
I1798780
sg30
I4346544
ssS'KITCHEN LOUISE'
p91
(dp92
g3
I8305
sg4
g5
sg6
I5774
sg7
I00
sg8
g5
sg9
F11.420487617981005
sg10
g5
sg11
S'louise.kitchen@enron.com'
p93
sg13
g5
sg14
I3669
sg15
g5
sg16
I1728
sg17
I93925
sg18
F0.7729083665338645
sg19
g5
sg20
I3100000
sg21
I547143
sg22
I251
sg23
I194
sg24
g25
sg26
F1.2938144329896908
sg27
I466101
sg28
I271442
sg29
I3471141
sg30
I81042
ssS'CHAN RONNIE'
p94
(dp95
g3
g5
sg4
g5
sg6
g5
sg7
I00
sg8
I-98784
sg9
g25
sg10
g5
sg11
g5
sg13
I-32460
sg14
g5
sg15
g5
sg16
g5
sg17
g5
sg18
g25
sg19
I98784
sg20
g5
sg21
g5
sg22
g5
sg23
g5
sg24
g25
sg26
g25
sg27
I32460
sg28
g5
sg29
g5
sg30
g5
ssS'BELFER ROBERT'
p96
(dp97
g3
g5
sg4
I-102500
sg6
g5
sg7
I00
sg8
g5
sg9
g25
sg10
g5
sg11
g5
sg13
I44093
sg14
g5
sg15
g5
sg16
g5
sg17
g5
sg18
g25
sg19
I3285
sg20
g5
sg21
I-44093
sg22
g5
sg23
g5
sg24
g25
sg26
g25
sg27
g5
sg28
g5
sg29
I102500
sg30
I3285
ssS'SHANKMAN JEFFREY A'
p98
(dp99
g3
I3221
sg4
g5
sg6
I178979
sg7
I00
sg8
g5
sg9
F6.576567689322943
sg10
I554422
sg11
S'jeffrey.shankman@enron.com'
p100
sg13
g5
sg14
I1730
sg15
g5
sg16
I2681
sg17
I1191
sg18
F0.8829787234042553
sg19
g5
sg20
I2000000
sg21
I2072035
sg22
I94
sg23
I83
sg24
g25
sg26
F1.1325301204819278
sg27
I630137
sg28
I304110
sg29
I3038702
sg30
I1441898
ssS'WODRASKA JOHN'
p101
(dp102
g3
g5
sg4
g5
sg6
g5
sg7
I00
sg8
g5
sg9
g25
sg10
g5
sg11
S'john.wodraska@enron.com'
p103
sg13
g5
sg14
g5
sg15
g5
sg16
g5
sg17
I189583
sg18
g25
sg19
g5
sg20
g5
sg21
g5
sg22
g5
sg23
g5
sg24
g25
sg26
g25
sg27
g5
sg28
g5
sg29
I189583
sg30
g5
ssS'BERGSIEKER RICHARD P'
p104
(dp105
g3
I383
sg4
g5
sg6
I59175
sg7
I00
sg8
I-485813
sg9
F1.3303391832781686
sg10
I180250
sg11
S'rick.bergsieker@enron.com'
p106
sg13
g5
sg14
I233
sg15
g5
sg16
I59
sg17
I427316
sg18
g25
sg19
g5
sg20
I250000
sg21
I659249
sg22
I4
sg23
I0
sg24
F-2.5851842785836676
sg26
g25
sg27
I659249
sg28
I187922
sg29
I618850
sg30
g5
ssS'URQUHART JOHN A'
p107
(dp108
g3
g5
sg4
g5
sg6
I228656
sg7
I00
sg8
I-36666
sg9
g25
sg10
g5
sg11
g5
sg13
g5
sg14
g5
sg15
g5
sg16
g5
sg17
g5
sg18
g25
sg19
I36666
sg20
g5
sg21
g5
sg22
g5
sg23
g5
sg24
g25
sg26
g25
sg27
g5
sg28
g5
sg29
I228656
sg30
g5
ssS'BIBI PHILIPPE A'
p109
(dp110
g3
I1607
sg4
g5
sg6
I38559
sg7
I00
sg8
g5
sg9
F4.681100058513751
sg10
I369721
sg11
S'philippe.bibi@enron.com'
p111
sg13
g5
sg14
I1336
sg15
g5
sg16
I40
sg17
I425688
sg18
F0.34782608695652173
sg19
g5
sg20
I1000000
sg21
I1843816
sg22
I23
sg23
I8
sg24
g25
sg26
F2.875
sg27
I378082
sg28
I213625
sg29
I2047593
sg30
I1465734
ssS'RIEKER PAULA H'
p112
(dp113
g3
I1328
sg4
I214678
sg6
I33271
sg7
I01
sg8
I-100000
sg9
F2.8089774920646384
sg10
g5
sg11
S'paula.rieker@enron.com'
p114
sg13
g5
sg14
I1258
sg15
g5
sg16
I82
sg17
I1950
sg18
F1.3714285714285714
sg19
g5
sg20
I700000
sg21
I1918887
sg22
I35
sg23
I48
sg24
F-0.40128249886637696
sg26
F0.7291666666666666
sg27
I283649
sg28
I249201
sg29
I1099100
sg30
I1635238
ssS'WHALEY DAVID A'
p115
(dp116
g3
g5
sg4
g5
sg6
g5
sg7
I00
sg8
g5
sg9
g25
sg10
g5
sg11
g5
sg13
g5
sg14
g5
sg15
g5
sg16
g5
sg17
g5
sg18
g25
sg19
g5
sg20
g5
sg21
I98718
sg22
g5
sg23
g5
sg24
g25
sg26
g25
sg27
g5
sg28
g5
sg29
g5
sg30
I98718
ssS'BECK SALLY W'
p117
(dp118
g3
I7315
sg4
g5
sg6
I37172
sg7
I00
sg8
g5
sg9
F3.025980201443825
sg10
g5
sg11
S'sally.beck@enron.com'
p119
sg13
g5
sg14
I2639
sg15
g5
sg16
I4343
sg17
I566
sg18
F2.6805555555555554
sg19
g5
sg20
I700000
sg21
I126027
sg22
I144
sg23
I386
sg24
g25
sg26
F0.37305699481865284
sg27
I126027
sg28
I231330
sg29
I969068
sg30
g5
ssS'HAUG DAVID L'
p120
(dp121
g3
I573
sg4
g5
sg6
I475
sg7
I00
sg8
g5
sg9
g25
sg10
g5
sg11
S'david.haug@enron.com'
p122
sg13
g5
sg14
I471
sg15
g5
sg16
I19
sg17
g5
sg18
F1.75
sg19
g5
sg20
g5
sg21
I2217299
sg22
I4
sg23
I7
sg24
g25
sg26
F0.5714285714285714
sg27
I2217299
sg28
g5
sg29
I475
sg30
g5
ssS'ECHOLS JOHN B'
p123
(dp124
g3
g5
sg4
g5
sg6
I21530
sg7
I00
sg8
g5
sg9
F1.0974237976350518
sg10
I2234774
sg11
S'john.echols@enron.com'
p125
sg13
g5
sg14
g5
sg15
g5
sg16
g5
sg17
I53775
sg18
g25
sg19
g5
sg20
I200000
sg21
I1008941
sg22
g5
sg23
g5
sg24
g25
sg26
g25
sg27
I407503
sg28
I182245
sg29
I2692324
sg30
I601438
ssS'MENDELSOHN JOHN'
p126
(dp127
g3
g5
sg4
g5
sg6
I148
sg7
I00
sg8
I-103750
sg9
g25
sg10
g5
sg11
g5
sg13
g5
sg14
g5
sg15
g5
sg16
g5
sg17
g5
sg18
g25
sg19
I103750
sg20
g5
sg21
g5
sg22
g5
sg23
g5
sg24
g25
sg26
g25
sg27
g5
sg28
g5
sg29
I148
sg30
g5
ssS'HICKERSON GARY J'
p128
(dp129
g3
I1320
sg4
g5
sg6
I98849
sg7
I00
sg8
g5
sg9
F8.02689481934765
sg10
I69223
sg11
S'gary.hickerson@enron.com'
p130
sg13
g5
sg14
I900
sg15
g5
sg16
I27
sg17
I1936
sg18
F0.025
sg19
g5
sg20
I1700000
sg21
I441096
sg22
I40
sg23
I1
sg24
g25
sg26
F40.0
sg27
I441096
sg28
I211788
sg29
I2081796
sg30
g5
ssS'CLINE KENNETH W'
p131
(dp132
g3
g5
sg4
g5
sg6
g5
sg7
I00
sg8
g5
sg9
g25
sg10
g5
sg11
g5
sg13
I-472568
sg14
g5
sg15
g5
sg16
g5
sg17
g5
sg18
g25
sg19
g5
sg20
g5
sg21
I189518
sg22
g5
sg23
g5
sg24
g25
sg26
g25
sg27
I662086
sg28
g5
sg29
g5
sg30
g5
ssS'LEWIS RICHARD'
p133
(dp134
g3
I952
sg4
g5
sg6
g5
sg7
I00
sg8
g5
sg9
g25
sg10
g5
sg11
S'richard.lewis@enron.com'
p135
sg13
g5
sg14
I739
sg15
g5
sg16
I26
sg17
g5
sg18
g25
sg19
g5
sg20
g5
sg21
I850477
sg22
I10
sg23
I0
sg24
g25
sg26
g25
sg27
g5
sg28
g5
sg29
g5
sg30
I850477
ssS'HAYES ROBERT E'
p136
(dp137
g3
I504
sg4
I7961
sg6
g5
sg7
I00
sg8
g5
sg9
g25
sg10
g5
sg11
S'robert.hayes@enron.com'
p138
sg13
g5
sg14
I50
sg15
g5
sg16
I12
sg17
g5
sg18
g25
sg19
g5
sg20
g5
sg21
I151418
sg22
I16
sg23
I0
sg24
g25
sg26
g25
sg27
I151418
sg28
g5
sg29
I7961
sg30
g5
ssS'MCCARTY DANNY J'
p139
(dp140
g3
I1433
sg4
g5
sg6
g5
sg7
I00
sg8
g5
sg9
g25
sg10
g5
sg11
S'danny.mccarty@enron.com'
p141
sg13
g5
sg14
I508
sg15
g5
sg16
I215
sg17
g5
sg18
F0.08
sg19
g5
sg20
g5
sg21
I758931
sg22
I25
sg23
I2
sg24
g25
sg26
F12.5
sg27
I94556
sg28
g5
sg29
g5
sg30
I664375
ssS'KOPPER MICHAEL J'
p142
(dp143
g3
g5
sg4
g5
sg6
I118134
sg7
I01
sg8
g5
sg9
F3.5665723011078665
sg10
I602671
sg11
S'michael.kopper@enron.com'
p144
sg13
g5
sg14
g5
sg15
g5
sg16
g5
sg17
I907502
sg18
g25
sg19
g5
sg20
I800000
sg21
I985032
sg22
g5
sg23
g5
sg24
g25
sg26
g25
sg27
I985032
sg28
I224305
sg29
I2652612
sg30
g5
ssS'LEFF DANIEL P'
p145
(dp146
g3
I2822
sg4
g5
sg6
g5
sg7
I00
sg8
g5
sg9
F3.653021414011529
sg10
I1387399
sg11
S'dan.leff@enron.com'
p147
sg13
g5
sg14
I2672
sg15
g5
sg16
I63
sg17
I3083
sg18
F0.208955223880597
sg19
g5
sg20
I1000000
sg21
I360528
sg22
I67
sg23
I14
sg24
g25
sg26
F4.785714285714286
sg27
I360528
sg28
I273746
sg29
I2664228
sg30
g5
ssS'LAVORATO JOHN J'
p148
(dp149
g3
I7259
sg4
g5
sg6
I49537
sg7
I00
sg8
g5
sg9
F23.57878852184575
sg10
I2035380
sg11
S'john.lavorato@enron.com'
p150
sg13
g5
sg14
I3962
sg15
g5
sg16
I2585
sg17
I1552
sg18
F0.7784090909090909
sg19
g5
sg20
I8000000
sg21
I5167144
sg22
I528
sg23
I411
sg24
g25
sg26
F1.2846715328467153
sg27
I1008149
sg28
I339288
sg29
I10425757
sg30
I4158995
ssS'BERBERIAN DAVID'
p151
(dp152
g3
g5
sg4
g5
sg6
I11892
sg7
I00
sg8
g5
sg9
g25
sg10
g5
sg11
S'david.berberian@enron.com'
p153
sg13
g5
sg14
g5
sg15
g5
sg16
g5
sg17
g5
sg18
g25
sg19
g5
sg20
g5
sg21
I2493616
sg22
g5
sg23
g5
sg24
g25
sg26
g25
sg27
I869220
sg28
I216582
sg29
I228474
sg30
I1624396
ssS'DETMERING TIMOTHY J'
p154
(dp155
g3
g5
sg4
I875307
sg6
I52255
sg7
I00
sg8
I-775241
sg9
F2.019002375296912
sg10
I415657
sg11
S'timothy.detmering@enron.com'
p156
sg13
I-315068
sg14
g5
sg15
g5
sg16
g5
sg17
I1105
sg18
g25
sg19
g5
sg20
I425000
sg21
I2027865
sg22
g5
sg23
g5
sg24
F-3.6828551068883613
sg26
g25
sg27
I315068
sg28
I210500
sg29
I1204583
sg30
I2027865
ssS'WAKEHAM JOHN'
p157
(dp158
g3
g5
sg4
g5
sg6
I103773
sg7
I00
sg8
g5
sg9
g25
sg10
g5
sg11
g5
sg13
g5
sg14
g5
sg15
g5
sg16
g5
sg17
g5
sg18
g25
sg19
I109298
sg20
g5
sg21
g5
sg22
g5
sg23
g5
sg24
g25
sg26
g25
sg27
g5
sg28
g5
sg29
I213071
sg30
g5
ssS'POWERS WILLIAM'
p159
(dp160
g3
I653
sg4
g5
sg6
g5
sg7
I00
sg8
I-17500
sg9
g25
sg10
g5
sg11
S'ken.powers@enron.com'
p161
sg13
g5
sg14
I12
sg15
g5
sg16
I26
sg17
g5
sg18
g25
sg19
I17500
sg20
g5
sg21
g5
sg22
I0
sg23
I0
sg24
g25
sg26
g25
sg27
g5
sg28
g5
sg29
g5
sg30
g5
ssS'GOLD JOSEPH'
p162
(dp163
g3
g5
sg4
g5
sg6
g5
sg7
I00
sg8
g5
sg9
F2.748460861917326
sg10
I304805
sg11
S'joe.gold@enron.com'
p164
sg13
g5
sg14
g5
sg15
g5
sg16
g5
sg17
I819288
sg18
g25
sg19
g5
sg20
I750000
sg21
I877611
sg22
g5
sg23
g5
sg24
g25
sg26
g25
sg27
I441096
sg28
I272880
sg29
I2146973
sg30
I436515
ssS'BANNANTINE JAMES M'
p165
(dp166
g3
I566
sg4
g5
sg6
I56301
sg7
I00
sg8
I-5104
sg9
g25
sg10
g5
sg11
S'james.bannantine@enron.com'
p167
sg13
I-560222
sg14
I465
sg15
g5
sg16
I29
sg17
I864523
sg18
g25
sg19
g5
sg20
g5
sg21
I5243487
sg22
I39
sg23
I0
sg24
F-10.70020964360587
sg26
g25
sg27
I1757552
sg28
I477
sg29
I916197
sg30
I4046157
ssS'DUNCAN JOHN H'
p168
(dp169
g3
g5
sg4
g5
sg6
g5
sg7
I00
sg8
I-25000
sg9
g25
sg10
g5
sg11
g5
sg13
g5
sg14
g5
sg15
g5
sg16
g5
sg17
g5
sg18
g25
sg19
I102492
sg20
g5
sg21
I371750
sg22
g5
sg23
g5
sg24
g25
sg26
g25
sg27
g5
sg28
g5
sg29
I77492
sg30
I371750
ssS'SHAPIRO RICHARD S'
p170
(dp171
g3
I15149
sg4
g5
sg6
I137767
sg7
I00
sg8
g5
sg9
F2.4156743819590005
sg10
g5
sg11
S'richard.shapiro@enron.com'
p172
sg13
g5
sg14
I4527
sg15
g5
sg16
I1215
sg17
I705
sg18
F0.8783783783783784
sg19
g5
sg20
I650000
sg21
I987001
sg22
I74
sg23
I65
sg24
g25
sg26
F1.1384615384615384
sg27
I379164
sg28
I269076
sg29
I1057548
sg30
I607837
ssS'SHERRIFF JOHN R'
p173
(dp174
g3
I3187
sg4
g5
sg6
g5
sg7
I00
sg8
g5
sg9
F3.4982974952189934
sg10
I554422
sg11
S'john.sherriff@enron.com'
p175
sg13
g5
sg14
I2103
sg15
g5
sg16
I92
sg17
I1852186
sg18
F0.8214285714285714
sg19
g5
sg20
I1500000
sg21
I3128982
sg22
I28
sg23
I23
sg24
g25
sg26
F1.2173913043478262
sg27
I1293424
sg28
I428780
sg29
I4335388
sg30
I1835558
ssS'SHELBY REX'
p176
(dp177
g3
I225
sg4
g5
sg6
I22884
sg7
I01
sg8
I-4167
sg9
F0.9440909348388437
sg10
g5
sg11
S'rex.shelby@enron.com'
p178
sg13
g5
sg14
I91
sg15
g5
sg16
I39
sg17
I1573324
sg18
F1.0769230769230769
sg19
g5
sg20
I200000
sg21
I2493616
sg22
I13
sg23
I14
sg24
F-0.01967013462736731
sg26
F0.9285714285714286
sg27
I869220
sg28
I211844
sg29
I2003885
sg30
I1624396
ssS'LEMAISTRE CHARLES'
p179
(dp180
g3
g5
sg4
g5
sg6
g5
sg7
I00
sg8
I-25000
sg9
g25
sg10
g5
sg11
g5
sg13
g5
sg14
g5
sg15
g5
sg16
g5
sg17
g5
sg18
g25
sg19
I112492
sg20
g5
sg21
I412878
sg22
g5
sg23
g5
sg24
g25
sg26
g25
sg27
g5
sg28
g5
sg29
I87492
sg30
I412878
ssS'DEFFNER JOSEPH M'
p181
(dp182
g3
I714
sg4
g5
sg6
I41626
sg7
I00
sg8
g5
sg9
F2.910911551952494
sg10
I335349
sg11
S'joseph.deffner@enron.com'
p183
sg13
g5
sg14
I552
sg15
g5
sg16
I74
sg17
I25553
sg18
F0.034782608695652174
sg19
g5
sg20
I600000
sg21
I159211
sg22
I115
sg23
I4
sg24
g25
sg26
F28.75
sg27
I141833
sg28
I206121
sg29
I1208649
sg30
I17378
ssS'KISHKILL JOSEPH G'
p184
(dp185
g3
g5
sg4
g5
sg6
I116335
sg7
I00
sg8
I-51042
sg9
g25
sg10
g5
sg11
S'joe.kishkill@enron.com'
p186
sg13
g5
sg14
g5
sg15
g5
sg16
g5
sg17
I465357
sg18
g25
sg19
g5
sg20
g5
sg21
I1034346
sg22
g5
sg23
g5
sg24
F-0.29293068420508933
sg26
g25
sg27
I1034346
sg28
I174246
sg29
I704896
sg30
g5
ssS'WHALLEY LAWRENCE G'
p187
(dp188
g3
I6019
sg4
g5
sg6
I57838
sg7
I00
sg8
g5
sg9
F5.878157550297435
sg10
I808346
sg11
S'greg.whalley@enron.com'
p189
sg13
g5
sg14
I3920
sg15
g5
sg16
I556
sg17
I301026
sg18
F0.12903225806451613
sg19
g5
sg20
I3000000
sg21
I6079137
sg22
I186
sg23
I24
sg24
g25
sg26
F7.75
sg27
I2796177
sg28
I510364
sg29
I4677574
sg30
I3282960
ssS'MCCONNELL MICHAEL S'
p190
(dp191
g3
I3329
sg4
g5
sg6
I81364
sg7
I00
sg8
g5
sg9
F3.013384907872605
sg10
I554422
sg11
S'mike.mcconnell@enron.com'
p192
sg13
g5
sg14
I2189
sg15
g5
sg16
I2742
sg17
I540
sg18
F2.108695652173913
sg19
g5
sg20
I1100000
sg21
I3101279
sg22
I92
sg23
I194
sg24
g25
sg26
F0.4742268041237113
sg27
I1478269
sg28
I365038
sg29
I2101364
sg30
I1623010
ssS'PIRO JIM'
p193
(dp194
g3
I58
sg4
g5
sg6
g5
sg7
I00
sg8
g5
sg9
g25
sg10
g5
sg11
S'jim.piro@enron.com'
p195
sg13
g5
sg14
I3
sg15
g5
sg16
I16
sg17
g5
sg18
g25
sg19
g5
sg20
g5
sg21
I47304
sg22
I0
sg23
I1
sg24
g25
sg26
g25
sg27
I47304
sg28
g5
sg29
g5
sg30
g5
ssS'DELAINEY DAVID W'
p196
(dp197
g3
I3093
sg4
g5
sg6
I86174
sg7
I01
sg8
g5
sg9
F8.215509238340138
sg10
I1294981
sg11
S'david.delainey@enron.com'
p198
sg13
g5
sg14
I2097
sg15
g5
sg16
I3069
sg17
I1661
sg18
F9.227272727272727
sg19
g5
sg20
I3000000
sg21
I3614261
sg22
I66
sg23
I609
sg24
g25
sg26
F0.10837438423645321
sg27
I1323148
sg28
I365163
sg29
I4747979
sg30
I2291113
ssS'SULLIVAN-SHAKLOVITZ COLLEEN'
p199
(dp200
g3
g5
sg4
I181993
sg6
g5
sg7
I00
sg8
g5
sg9
F0.6143298582741017
sg10
I554422
sg11
g5
sg13
g5
sg14
g5
sg15
g5
sg16
g5
sg17
I162
sg18
g25
sg19
g5
sg20
I100000
sg21
I1362375
sg22
g5
sg23
g5
sg24
g25
sg26
g25
sg27
g5
sg28
I162779
sg29
I999356
sg30
I1362375
ssS'WROBEL BRUCE'
p201
(dp202
g3
g5
sg4
g5
sg6
g5
sg7
I00
sg8
g5
sg9
g25
sg10
g5
sg11
g5
sg13
g5
sg14
g5
sg15
g5
sg16
g5
sg17
g5
sg18
g25
sg19
g5
sg20
g5
sg21
I139130
sg22
g5
sg23
g5
sg24
g25
sg26
g25
sg27
g5
sg28
g5
sg29
g5
sg30
I139130
ssS'LINDHOLM TOD A'
p203
(dp204
g3
g5
sg4
I204075
sg6
I57727
sg7
I00
sg8
g5
sg9
F0.8458197473536415
sg10
I175000
sg11
S'tod.lindholm@enron.com'
p205
sg13
g5
sg14
g5
sg15
g5
sg16
g5
sg17
I2630
sg18
g25
sg19
g5
sg20
I200000
sg21
I3064208
sg22
g5
sg23
g5
sg24
g25
sg26
g25
sg27
I514847
sg28
I236457
sg29
I875889
sg30
I2549361
ssS'MEYER JEROME J'
p206
(dp207
g3
g5
sg4
g5
sg6
I2151
sg7
I00
sg8
I-38346
sg9
g25
sg10
g5
sg11
g5
sg13
g5
sg14
g5
sg15
g5
sg16
g5
sg17
g5
sg18
g25
sg19
I38346
sg20
g5
sg21
g5
sg22
g5
sg23
g5
sg24
g25
sg26
g25
sg27
g5
sg28
g5
sg29
I2151
sg30
g5
ssS'LAY KENNETH L'
p208
(dp209
g3
I4273
sg4
I202911
sg6
I99832
sg7
I01
sg8
I-300000
sg9
F6.527896031132468
sg10
I3600000
sg11
S'kenneth.lay@enron.com'
p210
sg13
g5
sg14
I2411
sg15
I81525000
sg16
I36
sg17
I10359729
sg18
F0.13008130081300814
sg19
g5
sg20
I7000000
sg21
I49110078
sg22
I123
sg23
I16
sg24
F-0.2797669727628201
sg26
F7.6875
sg27
I14761694
sg28
I1072321
sg29
I103559793
sg30
I34348384
ssS'BUTTS ROBERT H'
p211
(dp212
g3
g5
sg4
g5
sg6
I9410
sg7
I00
sg8
I-75000
sg9
F2.8678933602532926
sg10
I175000
sg11
S'bob.butts@enron.com'
p213
sg13
g5
sg14
g5
sg15
g5
sg16
g5
sg17
I150656
sg18
g25
sg19
g5
sg20
I750000
sg21
I417619
sg22
g5
sg23
g5
sg24
F-0.28678933602532924
sg26
g25
sg27
I417619
sg28
I261516
sg29
I1271582
sg30
g5
ssS'OLSON CINDY K'
p214
(dp215
g3
I1184
sg4
I77716
sg6
I63791
sg7
I00
sg8
g5
sg9
F2.279094925823057
sg10
I100000
sg11
S'cindy.olson@enron.com'
p216
sg13
g5
sg14
I856
sg15
g5
sg16
I52
sg17
I972
sg18
F0.75
sg19
g5
sg20
I750000
sg21
I2606763
sg22
I20
sg23
I15
sg24
g25
sg26
F1.3333333333333333
sg27
I969729
sg28
I329078
sg29
I1321557
sg30
I1637034
ssS'MCDONALD REBECCA'
p217
(dp218
g3
I894
sg4
g5
sg6
g5
sg7
I00
sg8
g5
sg9
g25
sg10
g5
sg11
S'rebecca.mcdonald@enron.com'
p219
sg13
g5
sg14
I720
sg15
g5
sg16
I13
sg17
g5
sg18
F0.018518518518518517
sg19
g5
sg20
g5
sg21
I1691366
sg22
I54
sg23
I1
sg24
g25
sg26
F54.0
sg27
I934065
sg28
g5
sg29
g5
sg30
I757301
ssS'CUMBERLAND MICHAEL S'
p220
(dp221
g3
g5
sg4
g5
sg6
I22344
sg7
I00
sg8
g5
sg9
F1.7577163748857485
sg10
I275000
sg11
g5
sg13
g5
sg14
g5
sg15
g5
sg16
g5
sg17
I713
sg18
g25
sg19
g5
sg20
I325000
sg21
I207940
sg22
g5
sg23
g5
sg24
g25
sg26
g25
sg27
I207940
sg28
I184899
sg29
I807956
sg30
g5
ssS'GAHN ROBERT S'
p222
(dp223
g3
g5
sg4
I73122
sg6
I50080
sg7
I00
sg8
I-1042
sg9
F2.6554622724053165
sg10
g5
sg11
g5
sg13
g5
sg14
g5
sg15
g5
sg16
g5
sg17
I76547
sg18
g25
sg19
g5
sg20
I509870
sg21
I318607
sg22
g5
sg23
g5
sg24
F-0.0054268572142827385
sg26
g25
sg27
I235370
sg28
I192008
sg29
I900585
sg30
I83237
ssS'MCCLELLAN GEORGE'
p224
(dp225
g3
I1744
sg4
g5
sg6
I228763
sg7
I00
sg8
I-125000
sg9
F3.4166878627858153
sg10
g5
sg11
S'george.mcclellan@enron.com'
p226
sg13
g5
sg14
I1469
sg15
g5
sg16
I49
sg17
I51587
sg18
g25
sg19
g5
sg20
I900000
sg21
I947861
sg22
I52
sg23
I0
sg24
F-0.47453998094247435
sg26
g25
sg27
I441096
sg28
I263413
sg29
I1318763
sg30
I506765
ssS'HERMANN ROBERT J'
p227
(dp228
g3
g5
sg4
g5
sg6
I48357
sg7
I00
sg8
I-280000
sg9
F2.665011821231007
sg10
I150000
sg11
S'robert.hermann@enron.com'
p229
sg13
g5
sg14
g5
sg15
g5
sg16
g5
sg17
I416441
sg18
g25
sg19
g5
sg20
I700000
sg21
I668132
sg22
g5
sg23
g5
sg24
F-1.0660047284924028
sg26
g25
sg27
I480632
sg28
I262663
sg29
I1297461
sg30
I187500
ssS'SCRIMSHAW MATTHEW'
p230
(dp231
g3
g5
sg4
g5
sg6
g5
sg7
I00
sg8
g5
sg9
g25
sg10
g5
sg11
S'matthew.scrimshaw@enron.com'
p232
sg13
g5
sg14
g5
sg15
g5
sg16
g5
sg17
g5
sg18
g25
sg19
g5
sg20
g5
sg21
I759557
sg22
g5
sg23
g5
sg24
g25
sg26
g25
sg27
g5
sg28
g5
sg29
g5
sg30
I759557
ssS'GATHMANN WILLIAM D'
p233
(dp234
g3
g5
sg4
g5
sg6
g5
sg7
I00
sg8
g5
sg9
g25
sg10
g5
sg11
g5
sg13
I-72419
sg14
g5
sg15
g5
sg16
g5
sg17
g5
sg18
g25
sg19
g5
sg20
g5
sg21
I1945360
sg22
g5
sg23
g5
sg24
g25
sg26
g25
sg27
I264013
sg28
g5
sg29
g5
sg30
I1753766
ssS'HAEDICKE MARK E'
p235
(dp236
g3
I4009
sg4
I2157527
sg6
I76169
sg7
I00
sg8
I-934484
sg9
F3.073838957567658
sg10
I983346
sg11
S'mark.haedicke@enron.com'
p237
sg13
I-329825
sg14
I1847
sg15
g5
sg16
I1941
sg17
I52382
sg18
F0.3388888888888889
sg19
g5
sg20
I1150000
sg21
I803094
sg22
I180
sg23
I61
sg24
F-2.4977854994988307
sg26
F2.9508196721311477
sg27
I524169
sg28
I374125
sg29
I3859065
sg30
I608750
ssS'BOWEN JR RAYMOND M'
p238
(dp239
g3
I1858
sg4
g5
sg6
I65907
sg7
I01
sg8
I-833
sg9
F4.845639462887786
sg10
I974293
sg11
S'raymond.bowen@enron.com'
p240
sg13
g5
sg14
I1593
sg15
g5
sg16
I27
sg17
I1621
sg18
F0.10714285714285714
sg19
g5
sg20
I1350000
sg21
I252055
sg22
I140
sg23
I15
sg24
F-0.002989939016730019
sg26
F9.333333333333334
sg27
I252055
sg28
I278601
sg29
I2669589
sg30
g5
ssS'GILLIS JOHN'
p241
(dp242
g3
g5
sg4
g5
sg6
g5
sg7
I00
sg8
g5
sg9
g25
sg10
g5
sg11
g5
sg13
g5
sg14
g5
sg15
g5
sg16
g5
sg17
g5
sg18
g25
sg19
g5
sg20
g5
sg21
I85641
sg22
g5
sg23
g5
sg24
g25
sg26
g25
sg27
I75838
sg28
g5
sg29
g5
sg30
I9803
ssS'FITZGERALD JAY L'
p243
(dp244
g3
I936
sg4
g5
sg6
I23870
sg7
I00
sg8
g5
sg9
F1.7574074724965731
sg10
I556416
sg11
S'jay.fitzgerald@enron.com'
p245
sg13
g5
sg14
I723
sg15
g5
sg16
I16
sg17
I285414
sg18
F8.0
sg19
g5
sg20
I350000
sg21
I1621236
sg22
I1
sg23
I8
sg24
g25
sg26
F0.125
sg27
I956775
sg28
I199157
sg29
I1414857
sg30
I664461
ssS'MORAN MICHAEL P'
p246
(dp247
g3
I672
sg4
g5
sg6
g5
sg7
I00
sg8
g5
sg9
g25
sg10
g5
sg11
S'michael.moran@enron.com'
p248
sg13
g5
sg14
I127
sg15
g5
sg16
I19
sg17
g5
sg18
g25
sg19
g5
sg20
g5
sg21
I221141
sg22
I0
sg23
I0
sg24
g25
sg26
g25
sg27
I161602
sg28
g5
sg29
g5
sg30
I59539
ssS'REDMOND BRIAN L'
p249
(dp250
g3
I1671
sg4
g5
sg6
I14689
sg7
I00
sg8
g5
sg9
g25
sg10
g5
sg11
S'brian.redmond@enron.com'
p251
sg13
g5
sg14
I1063
sg15
g5
sg16
I221
sg17
g5
sg18
F0.24019607843137256
sg19
g5
sg20
g5
sg21
I7890324
sg22
I204
sg23
I49
sg24
g25
sg26
F4.163265306122449
sg27
I381285
sg28
I96840
sg29
I111529
sg30
I7509039
ssS'BAZELIDES PHILIP J'
p252
(dp253
g3
g5
sg4
I684694
sg6
g5
sg7
I00
sg8
g5
sg9
g25
sg10
I93750
sg11
g5
sg13
g5
sg14
g5
sg15
g5
sg16
g5
sg17
I874
sg18
g25
sg19
g5
sg20
g5
sg21
I1599641
sg22
g5
sg23
g5
sg24
g25
sg26
g25
sg27
g5
sg28
I80818
sg29
I860136
sg30
I1599641
ssS'BELDEN TIMOTHY N'
p254
(dp255
g3
I7991
sg4
I2144013
sg6
I17355
sg7
I01
sg8
I-2334434
sg9
F24.532820246823583
sg10
g5
sg11
S'tim.belden@enron.com'
p256
sg13
g5
sg14
I5521
sg15
g5
sg16
I484
sg17
I210698
sg18
F0.47368421052631576
sg19
g5
sg20
I5249999
sg21
I1110705
sg22
I228
sg23
I108
sg24
F-10.908621068322748
sg26
F2.111111111111111
sg27
I157569
sg28
I213999
sg29
I5501630
sg30
I953136
ssS'DURAN WILLIAM D'
p257
(dp258
g3
I904
sg4
g5
sg6
I25785
sg7
I00
sg8
g5
sg9
F3.559698517266911
sg10
I1105218
sg11
S'w.duran@enron.com'
p259
sg13
g5
sg14
I599
sg15
g5
sg16
I12
sg17
I1568
sg18
F0.02830188679245283
sg19
g5
sg20
I750000
sg21
I1640910
sg22
I106
sg23
I3
sg24
g25
sg26
F35.333333333333336
sg27
I189041
sg28
I210692
sg29
I2093263
sg30
I1451869
ssS'THORN TERENCE H'
p260
(dp261
g3
I266
sg4
I16586
sg6
I46145
sg7
I00
sg8
g5
sg9
g25
sg10
I200000
sg11
S'terence.thorn@enron.com'
p262
sg13
g5
sg14
I73
sg15
g5
sg16
I41
sg17
I426629
sg18
g25
sg19
g5
sg20
g5
sg21
I4817796
sg22
I0
sg23
I0
sg24
g25
sg26
g25
sg27
I365320
sg28
I222093
sg29
I911453
sg30
I4452476
ssS'FASTOW ANDREW S'
p263
(dp264
g3
g5
sg4
g5
sg6
I55921
sg7
I01
sg8
I-1386055
sg9
F2.949865894558178
sg10
I1736055
sg11
S'andrew.fastow@enron.com'
p265
sg13
g5
sg14
g5
sg15
g5
sg16
g5
sg17
I277464
sg18
g25
sg19
g5
sg20
I1300000
sg21
I1794412
sg22
g5
sg23
g5
sg24
F-3.1451356711398737
sg26
g25
sg27
I1794412
sg28
I440698
sg29
I2424083
sg30
g5
ssS'FOY JOE'
p266
(dp267
g3
I57
sg4
I181755
sg6
g5
sg7
I00
sg8
g5
sg9
g25
sg10
g5
sg11
S'tracy.foy@enron.com'
p268
sg13
g5
sg14
I2
sg15
g5
sg16
I13
sg17
g5
sg18
g25
sg19
g5
sg20
g5
sg21
I343434
sg22
I0
sg23
I0
sg24
g25
sg26
g25
sg27
g5
sg28
g5
sg29
I181755
sg30
I343434
ssS'CALGER CHRISTOPHER F'
p269
(dp270
g3
I2598
sg4
g5
sg6
I35818
sg7
I01
sg8
I-262500
sg9
F5.204234998272194
sg10
I375304
sg11
S'christopher.calger@enron.com'
p271
sg13
g5
sg14
I2188
sg15
g5
sg16
I144
sg17
I486
sg18
F0.12562814070351758
sg19
g5
sg20
I1250000
sg21
I126027
sg22
I199
sg23
I25
sg24
F-1.0928893496371608
sg26
F7.96
sg27
I126027
sg28
I240189
sg29
I1639297
sg30
g5
ssS'RICE KENNETH D'
p272
(dp273
g3
I905
sg4
g5
sg6
I46950
sg7
I01
sg8
I-3504386
sg9
F4.160366682832663
sg10
I1617011
sg11
S'ken.rice@enron.com'
p274
sg13
g5
sg14
I864
sg15
g5
sg16
I18
sg17
I174839
sg18
F0.09523809523809523
sg19
g5
sg20
I1750000
sg21
I22542539
sg22
I42
sg23
I4
sg24
F-8.3311604332487
sg26
F10.5
sg27
I2748364
sg28
I420636
sg29
I505050
sg30
I19794175
ssS'KAMINSKI WINCENTY J'
p275
(dp276
g3
I4607
sg4
g5
sg6
I83585
sg7
I00
sg8
g5
sg9
F1.4540114357999425
sg10
I323466
sg11
S'vince.kaminski@enron.com'
p277
sg13
g5
sg14
I583
sg15
g5
sg16
I14368
sg17
I4669
sg18
F4.170731707317073
sg19
g5
sg20
I400000
sg21
I976037
sg22
I41
sg23
I171
sg24
g25
sg26
F0.23976608187134502
sg27
I126027
sg28
I275101
sg29
I1086821
sg30
I850010
ssS'LOCKHART EUGENE E'
p278
(dp279
g3
g5
sg4
g5
sg6
g5
sg7
I00
sg8
g5
sg9
g25
sg10
g5
sg11
g5
sg13
g5
sg14
g5
sg15
g5
sg16
g5
sg17
g5
sg18
g25
sg19
g5
sg20
g5
sg21
g5
sg22
g5
sg23
g5
sg24
g25
sg26
g25
sg27
g5
sg28
g5
sg29
g5
sg30
g5
ssS'COX DAVID'
p280
(dp281
g3
I102
sg4
g5
sg6
I27861
sg7
I00
sg8
I-41250
sg9
F2.5454360331924857
sg10
g5
sg11
S'chip.cox@enron.com'
p282
sg13
g5
sg14
I71
sg15
g5
sg16
I33
sg17
I494
sg18
g25
sg19
g5
sg20
I800000
sg21
I495633
sg22
I0
sg23
I4
sg24
F-0.13124904546148755
sg26
g25
sg27
I378082
sg28
I314288
sg29
I1101393
sg30
I117551
ssS'OVERDYKE JR JERE C'
p283
(dp284
g3
g5
sg4
g5
sg6
I18834
sg7
I00
sg8
g5
sg9
g25
sg10
I135836
sg11
S'jere.overdyke@enron.com'
p285
sg13
g5
sg14
g5
sg15
g5
sg16
g5
sg17
I176
sg18
g25
sg19
g5
sg20
g5
sg21
I7307594
sg22
g5
sg23
g5
sg24
g25
sg26
g25
sg27
I2041016
sg28
I94941
sg29
I249787
sg30
I5266578
ssS'PEREIRA PAULO V. FERRAZ'
p286
(dp287
g3
g5
sg4
g5
sg6
I27942
sg7
I00
sg8
I-101250
sg9
g25
sg10
g5
sg11
g5
sg13
g5
sg14
g5
sg15
g5
sg16
g5
sg17
g5
sg18
g25
sg19
I101250
sg20
g5
sg21
g5
sg22
g5
sg23
g5
sg24
g25
sg26
g25
sg27
g5
sg28
g5
sg29
I27942
sg30
g5
ssS'STABLER FRANK'
p288
(dp289
g3
g5
sg4
g5
sg6
I16514
sg7
I00
sg8
g5
sg9
F2.0876652387036434
sg10
g5
sg11
S'frank.stabler@enron.com'
p290
sg13
g5
sg14
g5
sg15
g5
sg16
g5
sg17
I356071
sg18
g25
sg19
g5
sg20
I500000
sg21
I511734
sg22
g5
sg23
g5
sg24
g25
sg26
g25
sg27
I511734
sg28
I239502
sg29
I1112087
sg30
g5
ssS'SKILLING JEFFREY K'
p291
(dp292
g3
I3627
sg4
g5
sg6
I29336
sg7
I01
sg8
g5
sg9
F5.03933380007163
sg10
I1920000
sg11
S'jeff.skilling@enron.com'
p293
sg13
g5
sg14
I2042
sg15
g5
sg16
I108
sg17
I22122
sg18
F0.3409090909090909
sg19
g5
sg20
I5600000
sg21
I26093672
sg22
I88
sg23
I30
sg24
g25
sg26
F2.933333333333333
sg27
I6843672
sg28
I1111258
sg29
I8682716
sg30
I19250000
ssS'BLAKE JR. NORMAN P'
p294
(dp295
g3
g5
sg4
g5
sg6
I1279
sg7
I00
sg8
I-113784
sg9
g25
sg10
g5
sg11
g5
sg13
g5
sg14
g5
sg15
g5
sg16
g5
sg17
g5
sg18
g25
sg19
I113784
sg20
g5
sg21
g5
sg22
g5
sg23
g5
sg24
g25
sg26
g25
sg27
g5
sg28
g5
sg29
I1279
sg30
g5
ssS'SHERRICK JEFFREY B'
p296
(dp297
g3
I613
sg4
g5
sg6
g5
sg7
I00
sg8
g5
sg9
g25
sg10
g5
sg11
S'jeffrey.sherrick@enron.com'
p298
sg13
g5
sg14
I583
sg15
g5
sg16
I25
sg17
g5
sg18
F0.46153846153846156
sg19
g5
sg20
g5
sg21
I1832468
sg22
I39
sg23
I18
sg24
g25
sg26
F2.1666666666666665
sg27
I405999
sg28
g5
sg29
g5
sg30
I1426469
ssS'PRENTICE JAMES'
p299
(dp300
g3
g5
sg4
I564348
sg6
g5
sg7
I00
sg8
g5
sg9
g25
sg10
g5
sg11
S'james.prentice@enron.com'
p301
sg13
g5
sg14
g5
sg15
g5
sg16
g5
sg17
g5
sg18
g25
sg19
g5
sg20
g5
sg21
I1095040
sg22
g5
sg23
g5
sg24
g25
sg26
g25
sg27
I208809
sg28
g5
sg29
I564348
sg30
I886231
ssS'GRAY RODNEY'
p302
(dp303
g3
g5
sg4
I93585
sg6
g5
sg7
I00
sg8
g5
sg9
g25
sg10
I365625
sg11
g5
sg13
g5
sg14
g5
sg15
g5
sg16
g5
sg17
I680833
sg18
g25
sg19
g5
sg20
g5
sg21
g5
sg22
g5
sg23
g5
sg24
g25
sg26
g25
sg27
g5
sg28
I6615
sg29
I1146658
sg30
g5
ssS'PICKERING MARK R'
p304
(dp305
g3
I898
sg4
g5
sg6
I31653
sg7
I00
sg8
g5
sg9
F0.45798939601885086
sg10
g5
sg11
S'mark.pickering@enron.com'
p306
sg13
g5
sg14
I728
sg15
I400000
sg16
I67
sg17
g5
sg18
g25
sg19
g5
sg20
I300000
sg21
I28798
sg22
I7
sg23
I0
sg24
g25
sg26
g25
sg27
g5
sg28
I655037
sg29
I1386690
sg30
I28798
ssS'NOLES JAMES L'
p307
(dp308
g3
g5
sg4
I774401
sg6
g5
sg7
I00
sg8
g5
sg9
g25
sg10
g5
sg11
g5
sg13
I-94556
sg14
g5
sg15
g5
sg16
g5
sg17
g5
sg18
g25
sg19
g5
sg20
g5
sg21
I368705
sg22
g5
sg23
g5
sg24
g25
sg26
g25
sg27
I463261
sg28
g5
sg29
I774401
sg30
g5
ssS'KEAN STEVEN J'
p309
(dp310
g3
I12754
sg4
g5
sg6
I41953
sg7
I00
sg8
g5
sg9
F2.473178380463869
sg10
I300000
sg11
S'steven.kean@enron.com'
p311
sg13
g5
sg14
I3639
sg15
g5
sg16
I6759
sg17
I1231
sg18
F2.7642857142857142
sg19
g5
sg20
I1000000
sg21
I6153642
sg22
I140
sg23
I387
sg24
g25
sg26
F0.36175710594315247
sg27
I4131594
sg28
I404338
sg29
I1747522
sg30
I2022048
ssS'FOWLER PEGGY'
p312
(dp313
g3
I517
sg4
g5
sg6
g5
sg7
I00
sg8
g5
sg9
g25
sg10
g5
sg11
S'kulvinder.fowler@enron.com'
p314
sg13
g5
sg14
I10
sg15
g5
sg16
I36
sg17
g5
sg18
g25
sg19
g5
sg20
g5
sg21
I1884748
sg22
I0
sg23
I0
sg24
g25
sg26
g25
sg27
I560170
sg28
g5
sg29
g5
sg30
I1324578
ssS'WASAFF GEORGE'
p315
(dp316
g3
I400
sg4
I831299
sg6
g5
sg7
I00
sg8
I-583325
sg9
F1.2500192310650933
sg10
I200000
sg11
S'george.wasaff@enron.com'
p317
sg13
g5
sg14
I337
sg15
g5
sg16
I30
sg17
I1425
sg18
F0.3181818181818182
sg19
g5
sg20
I325000
sg21
I2056427
sg22
I22
sg23
I7
sg24
F-2.2435922091109095
sg26
F3.142857142857143
sg27
I388167
sg28
I259996
sg29
I1034395
sg30
I1668260
ssS'WHITE JR THOMAS E'
p318
(dp319
g3
g5
sg4
g5
sg6
I81353
sg7
I00
sg8
g5
sg9
F1.417130908254945
sg10
g5
sg11
S'thomas.white@enron.com'
p320
sg13
g5
sg14
g5
sg15
g5
sg16
g5
sg17
I1085463
sg18
g25
sg19
g5
sg20
I450000
sg21
I15144123
sg22
g5
sg23
g5
sg24
g25
sg26
g25
sg27
I13847074
sg28
I317543
sg29
I1934359
sg30
I1297049
ssS'CHRISTODOULOU DIOMEDES'
p321
(dp322
g3
g5
sg4
g5
sg6
g5
sg7
I00
sg8
g5
sg9
g25
sg10
g5
sg11
S'diomedes.christodoulou@enron.com'
p323
sg13
g5
sg14
g5
sg15
g5
sg16
g5
sg17
g5
sg18
g25
sg19
g5
sg20
g5
sg21
I6077885
sg22
g5
sg23
g5
sg24
g25
sg26
g25
sg27
I950730
sg28
g5
sg29
g5
sg30
I5127155
ssS'ALLEN PHILLIP K'
p324
(dp325
g3
I2902
sg4
I2869717
sg6
I13868
sg7
I00
sg8
I-3081055
sg9
F20.672922185635414
sg10
I304805
sg11
S'phillip.allen@enron.com'
p326
sg13
I-126027
sg14
I1407
sg15
g5
sg16
I2195
sg17
I152
sg18
F1.3829787234042554
sg19
g5
sg20
I4175000
sg21
I1729541
sg22
I47
sg23
I65
sg24
F-15.256146171176747
sg26
F0.7230769230769231
sg27
I126027
sg28
I201955
sg29
I4484442
sg30
I1729541
ssS'SHARP VICTORIA T'
p327
(dp328
g3
I3136
sg4
I187469
sg6
I116337
sg7
I00
sg8
g5
sg9
F2.417931379107461
sg10
I422158
sg11
S'vicki.sharp@enron.com'
p329
sg13
g5
sg14
I2477
sg15
g5
sg16
I136
sg17
I2401
sg18
F0.25
sg19
g5
sg20
I600000
sg21
I494136
sg22
I24
sg23
I6
sg24
g25
sg26
F4.0
sg27
I213063
sg28
I248146
sg29
I1576511
sg30
I281073
ssS'JAEDICKE ROBERT'
p330
(dp331
g3
g5
sg4
g5
sg6
g5
sg7
I00
sg8
I-25000
sg9
g25
sg10
g5
sg11
g5
sg13
I-44093
sg14
g5
sg15
g5
sg16
g5
sg17
g5
sg18
g25
sg19
I108750
sg20
g5
sg21
I431750
sg22
g5
sg23
g5
sg24
g25
sg26
g25
sg27
I44093
sg28
g5
sg29
I83750
sg30
I431750
ssS'WINOKUR JR. HERBERT S'
p332
(dp333
g3
g5
sg4
g5
sg6
I1413
sg7
I00
sg8
I-25000
sg9
g25
sg10
g5
sg11
g5
sg13
g5
sg14
g5
sg15
g5
sg16
g5
sg17
g5
sg18
g25
sg19
I108579
sg20
g5
sg21
g5
sg22
g5
sg23
g5
sg24
g25
sg26
g25
sg27
g5
sg28
g5
sg29
I84992
sg30
g5
ssS'BROWN MICHAEL'
p334
(dp335
g3
I1486
sg4
g5
sg6
I49288
sg7
I00
sg8
g5
sg9
g25
sg10
g5
sg11
S'michael.brown@enron.com'
p336
sg13
g5
sg14
I761
sg15
g5
sg16
I41
sg17
g5
sg18
F0.07692307692307693
sg19
g5
sg20
g5
sg21
g5
sg22
I13
sg23
I1
sg24
g25
sg26
F13.0
sg27
g5
sg28
g5
sg29
I49288
sg30
g5
ssS'BADUM JAMES P'
p337
(dp338
g3
g5
sg4
I178980
sg6
I3486
sg7
I00
sg8
g5
sg9
g25
sg10
g5
sg11
g5
sg13
g5
sg14
g5
sg15
g5
sg16
g5
sg17
g5
sg18
g25
sg19
g5
sg20
g5
sg21
I257817
sg22
g5
sg23
g5
sg24
g25
sg26
g25
sg27
g5
sg28
g5
sg29
I182466
sg30
I257817
ssS'HUGHES JAMES A'
p339
(dp340
g3
I719
sg4
g5
sg6
g5
sg7
I00
sg8
g5
sg9
g25
sg10
g5
sg11
S'james.hughes@enron.com'
p341
sg13
g5
sg14
I589
sg15
g5
sg16
I34
sg17
g5
sg18
F0.14285714285714285
sg19
g5
sg20
g5
sg21
I1118394
sg22
I35
sg23
I5
sg24
g25
sg26
F7.0
sg27
I363428
sg28
g5
sg29
g5
sg30
I754966
ssS'REYNOLDS LAWRENCE'
p342
(dp343
g3
g5
sg4
I51365
sg6
I8409
sg7
I00
sg8
I-200000
sg9
F1.3089176559902616
sg10
I156250
sg11
g5
sg13
I-140264
sg14
g5
sg15
g5
sg16
g5
sg17
I202052
sg18
g25
sg19
g5
sg20
I100000
sg21
I4221891
sg22
g5
sg23
g5
sg24
F-2.617835311980523
sg26
g25
sg27
I201483
sg28
I76399
sg29
I394475
sg30
I4160672
ssS'DIMICHELE RICHARD G'
p344
(dp345
g3
g5
sg4
g5
sg6
I35812
sg7
I00
sg8
g5
sg9
F3.8053487982708494
sg10
I694862
sg11
S'richard.dimichele@enron.com'
p346
sg13
g5
sg14
g5
sg15
g5
sg16
g5
sg17
I374689
sg18
g25
sg19
g5
sg20
I1000000
sg21
I8317782
sg22
g5
sg23
g5
sg24
g25
sg26
g25
sg27
I126027
sg28
I262788
sg29
I2368151
sg30
I8191755
ssS'BHATNAGAR SANJAY'
p347
(dp348
g3
I523
sg4
g5
sg6
g5
sg7
I00
sg8
g5
sg9
g25
sg10
g5
sg11
S'sanjay.bhatnagar@enron.com'
p349
sg13
I15456290
sg14
I463
sg15
g5
sg16
I29
sg17
I137864
sg18
g25
sg19
I137864
sg20
g5
sS'total_stock_value'
p350
S'NaN'
p351
sg22
I0
sg23
I1
sg24
g25
sg26
g25
sg27
I-2604490
sg28
g5
sg29
I15456290
sg30
I2604490
ssS'CARTER REBECCA C'
p352
(dp353
g3
I312
sg4
g5
sg6
g5
sg7
I00
sg8
I-159792
sg9
F1.14587351848103
sg10
I75000
sg11
S'rebecca.carter@enron.com'
p354
sg13
I-307301
sg14
I196
sg15
g5
sg16
I15
sg17
I540
sg18
F0.2413793103448276
sg19
g5
sg20
I300000
sg21
g5
sg22
I29
sg23
I7
sg24
F-0.6103380708837358
sg26
F4.142857142857143
sg27
I307301
sg28
I261809
sg29
I477557
sg30
g5
ssS'BUCHANAN HAROLD G'
p355
(dp356
g3
I1088
sg4
g5
sg6
I600
sg7
I00
sg8
g5
sg9
F2.015990839337626
sg10
I304805
sg11
S'john.buchanan@enron.com'
p357
sg13
g5
sg14
I23
sg15
g5
sg16
I125
sg17
I1215
sg18
g25
sg19
g5
sg20
I500000
sg21
I1014505
sg22
I0
sg23
I0
sg24
g25
sg26
g25
sg27
I189041
sg28
I248017
sg29
I1054637
sg30
I825464
ssS'YEAP SOON'
p358
(dp359
g3
g5
sg4
g5
sg6
I55097
sg7
I00
sg8
g5
sg9
g25
sg10
g5
sg11
g5
sg13
g5
sg14
g5
sg15
g5
sg16
g5
sg17
g5
sg18
g25
sg19
g5
sg20
g5
sg21
I192758
sg22
g5
sg23
g5
sg24
g25
sg26
g25
sg27
g5
sg28
g5
sg29
I55097
sg30
I192758
ssS'MURRAY JULIA H'
p360
(dp361
g3
I2192
sg4
g5
sg6
I57580
sg7
I00
sg8
g5
sg9
F1.744561330053558
sg10
I125000
sg11
S'julia.murray@enron.com'
p362
sg13
g5
sg14
I395
sg15
g5
sg16
I45
sg17
I330
sg18
F0.18181818181818182
sg19
g5
sg20
I400000
sg21
I597461
sg22
I11
sg23
I2
sg24
g25
sg26
F5.5
sg27
I196983
sg28
I229284
sg29
I812194
sg30
I400478
ssS'GARLAND C KEVIN'
p363
(dp364
g3
I209
sg4
g5
sg6
I48405
sg7
I00
sg8
g5
sg9
F3.6646460814155017
sg10
I375304
sg11
S'kevin.garland@enron.com'
p365
sg13
g5
sg14
I178
sg15
g5
sg16
I44
sg17
I60814
sg18
F2.7
sg19
g5
sg20
I850000
sg21
I896153
sg22
I10
sg23
I27
sg24
g25
sg26
F0.37037037037037035
sg27
I259907
sg28
I231946
sg29
I1566469
sg30
I636246
ssS'DODSON KEITH'
p366
(dp367
g3
I176
sg4
g5
sg6
I28164
sg7
I00
sg8
g5
sg9
F0.3167377818400655
sg10
g5
sg11
S'keith.dodson@enron.com'
p368
sg13
g5
sg14
I114
sg15
g5
sg16
I14
sg17
I774
sg18
F0.3
sg19
g5
sg20
I70000
sg21
g5
sg22
I10
sg23
I3
sg24
g25
sg26
F3.3333333333333335
sg27
g5
sg28
I221003
sg29
I319941
sg30
g5
ssS'YEAGER F SCOTT'
p369
(dp370
g3
g5
sg4
g5
sg6
I53947
sg7
I01
sg8
g5
sg9
g25
sg10
g5
sg11
S'scott.yeager@enron.com'
p371
sg13
g5
sg14
g5
sg15
g5
sg16
g5
sg17
I147950
sg18
g25
sg19
g5
sg20
g5
sg21
I11884758
sg22
g5
sg23
g5
sg24
g25
sg26
g25
sg27
I3576206
sg28
I158403
sg29
I360300
sg30
I8308552
ssS'HIRKO JOSEPH'
p372
(dp373
g3
g5
sg4
I10259
sg6
I77978
sg7
I01
sg8
g5
sg9
g25
sg10
g5
sg11
S'joe.hirko@enron.com'
p374
sg13
g5
sg14
g5
sg15
g5
sg16
g5
sg17
I2856
sg18
g25
sg19
g5
sg20
g5
sg21
I30766064
sg22
g5
sg23
g5
sg24
g25
sg26
g25
sg27
g5
sg28
g5
sg29
I91093
sg30
I30766064
ssS'DIETRICH JANET R'
p375
(dp376
g3
I2572
sg4
g5
sg6
I3475
sg7
I00
sg8
g5
sg9
F2.3990403838464616
sg10
I556416
sg11
S'janet.dietrich@enron.com'
p377
sg13
g5
sg14
I1902
sg15
g5
sg16
I63
sg17
I473
sg18
F0.04590163934426229
sg19
g5
sg20
I600000
sg21
I1865087
sg22
I305
sg23
I14
sg24
g25
sg26
F21.785714285714285
sg27
I315068
sg28
I250100
sg29
I1410464
sg30
I1550019
ssS'DERRICK JR. JAMES V'
p378
(dp379
g3
I2181
sg4
g5
sg6
I51124
sg7
I00
sg8
I-1284000
sg9
F1.6247778624016247
sg10
I484000
sg11
S'james.derrick@enron.com'
p380
sg13
I-1787380
sg14
I1401
sg15
g5
sg16
I909
sg17
I7482
sg18
F0.3125
sg19
g5
sg20
I800000
sg21
I8831913
sg22
I64
sg23
I20
sg24
F-2.6077684691546077
sg26
F3.2
sg27
I1787380
sg28
I492375
sg29
I550981
sg30
I8831913
ssS'FREVERT MARK A'
p381
(dp382
g3
I3275
sg4
I6426990
sg6
I86987
sg7
I00
sg8
I-3367011
sg9
F1.885134956811558
sg10
I1617011
sg11
S'mark.frevert@enron.com'
p383
sg13
g5
sg14
I2979
sg15
I2000000
sg16
I21
sg17
I7427621
sg18
F0.024793388429752067
sg19
g5
sg20
I2000000
sg21
I14622185
sg22
I242
sg23
I6
sg24
F-3.1736350680345207
sg26
F40.333333333333336
sg27
I4188667
sg28
I1060932
sg29
I17252530
sg30
I10433518
ssS'PAI LOU L'
p384
(dp385
g3
g5
sg4
g5
sg6
I32047
sg7
I00
sg8
g5
sg9
F3.8185574253758414
sg10
g5
sg11
S'lou.pai@enron.com'
p386
sg13
g5
sg14
g5
sg15
g5
sg16
g5
sg17
I1829457
sg18
g25
sg19
g5
sg20
I1000000
sg21
I23817930
sg22
g5
sg23
g5
sg24
g25
sg26
g25
sg27
I8453763
sg28
I261879
sg29
I3123383
sg30
I15364167
ssS'BAY FRANKLIN R'
p387
(dp388
g3
g5
sg4
I260455
sg6
I129142
sg7
I00
sg8
I-201641
sg9
F1.6689545251615756
sg10
g5
sg11
S'frank.bay@enron.com'
p389
sg13
I-82782
sg14
g5
sg15
g5
sg16
g5
sg17
I69
sg18
g25
sg19
g5
sg20
I400000
sg21
I63014
sg22
g5
sg23
g5
sg24
F-0.8413241485202632
sg26
g25
sg27
I145796
sg28
I239671
sg29
I827696
sg30
g5
ssS'HAYSLETT RODERICK J'
p390
(dp391
g3
I2649
sg4
g5
sg6
g5
sg7
I00
sg8
g5
sg9
g25
sg10
g5
sg11
S'rod.hayslett@enron.com'
p392
sg13
g5
sg14
I571
sg15
g5
sg16
I1061
sg17
g5
sg18
F1.0857142857142856
sg19
g5
sg20
g5
sg21
I346663
sg22
I35
sg23
I38
sg24
g25
sg26
F0.9210526315789473
sg27
I346663
sg28
g5
sg29
g5
sg30
g5
ssS'FUGH JOHN L'
p393
(dp394
g3
g5
sg4
I50591
sg6
g5
sg7
I00
sg8
g5
sg9
g25
sg10
g5
sg11
g5
sg13
g5
sg14
g5
sg15
g5
sg16
g5
sg17
g5
sg18
g25
sg19
g5
sg20
g5
sg21
I176378
sg22
g5
sg23
g5
sg24
g25
sg26
g25
sg27
g5
sg28
g5
sg29
I50591
sg30
I176378
ssS'FALLON JAMES B'
p395
(dp396
g3
I1755
sg4
g5
sg6
I95924
sg7
I00
sg8
g5
sg9
F8.207808580771403
sg10
I374347
sg11
S'jim.fallon@enron.com'
p397
sg13
g5
sg14
I1604
sg15
g5
sg16
I75
sg17
I401481
sg18
F0.8809523809523809
sg19
g5
sg20
I2500000
sg21
I2332399
sg22
I42
sg23
I37
sg24
g25
sg26
F1.135135135135135
sg27
I1392142
sg28
I304588
sg29
I3676340
sg30
I940257
ssS'KOENIG MARK E'
p398
(dp399
g3
I2374
sg4
g5
sg6
I127017
sg7
I01
sg8
g5
sg9
F2.2584579249288588
sg10
I300000
sg11
S'mark.koenig@enron.com'
p400
sg13
g5
sg14
I2271
sg15
g5
sg16
I61
sg17
I150458
sg18
F0.2830188679245283
sg19
g5
sg20
I700000
sg21
I1920055
sg22
I53
sg23
I15
sg24
g25
sg26
F3.533333333333333
sg27
I1248318
sg28
I309946
sg29
I1587421
sg30
I671737
ssS'SAVAGE FRANK'
p401
(dp402
g3
g5
sg4
g5
sg6
g5
sg7
I00
sg8
I-121284
sg9
g25
sg10
g5
sg11
g5
sg13
g5
sg14
g5
sg15
g5
sg16
g5
sg17
g5
sg18
g25
sg19
I125034
sg20
g5
sg21
g5
sg22
g5
sg23
g5
sg24
g25
sg26
g25
sg27
g5
sg28
g5
sg29
I3750
sg30
g5
ssS'IZZO LAWRENCE L'
p403
(dp404
g3
I496
sg4
g5
sg6
I28093
sg7
I00
sg8
g5
sg9
g25
sg10
I312500
sg11
S'larry.izzo@enron.com'
p405
sg13
g5
sg14
I437
sg15
g5
sg16
I19
sg17
I1553729
sg18
F0.17857142857142858
sg19
g5
sg20
g5
sg21
I5819980
sg22
I28
sg23
I5
sg24
g25
sg26
F5.6
sg27
I3654808
sg28
I85274
sg29
I1979596
sg30
I2165172
ssS'TILNEY ELIZABETH A'
p406
(dp407
g3
I460
sg4
g5
sg6
g5
sg7
I00
sg8
I-575000
sg9
F1.2129151201998885
sg10
I275000
sg11
S'elizabeth.tilney@enron.com'
p408
sg13
g5
sg14
I379
sg15
g5
sg16
I19
sg17
I152055
sg18
F1.1
sg19
g5
sg20
I300000
sg21
I1168042
sg22
I10
sg23
I11
sg24
F-2.3247539803831194
sg26
F0.9090909090909091
sg27
I576792
sg28
I247338
sg29
I399393
sg30
I591250
ssS'MARTIN AMANDA K'
p409
(dp410
g3
I1522
sg4
I85430
sg6
I8211
sg7
I00
sg8
g5
sg9
g25
sg10
I5145434
sg11
S'a..martin@enron.com'
p411
sg13
g5
sg14
I477
sg15
g5
sg16
I230
sg17
I2818454
sg18
g25
sg19
g5
sg20
g5
sg21
I2070306
sg22
I8
sg23
I0
sg24
g25
sg26
g25
sg27
g5
sg28
I349487
sg29
I8407016
sg30
I2070306
ssS'BUY RICHARD B'
p412
(dp413
g3
I3523
sg4
I649584
sg6
g5
sg7
I00
sg8
I-694862
sg9
F2.722767784211577
sg10
I769862
sg11
S'rick.buy@enron.com'
p414
sg13
g5
sg14
I2333
sg15
g5
sg16
I1053
sg17
I400572
sg18
F0.4551282051282051
sg19
g5
sg20
I900000
sg21
I3444470
sg22
I156
sg23
I71
sg24
F-2.1021642978586943
sg26
F2.1971830985915495
sg27
I901657
sg28
I330546
sg29
I2355702
sg30
I2542813
ssS'GRAMM WENDY L'
p415
(dp416
g3
g5
sg4
g5
sg6
g5
sg7
I00
sg8
g5
sg9
g25
sg10
g5
sg11
g5
sg13
g5
sg14
g5
sg15
g5
sg16
g5
sg17
g5
sg18
g25
sg19
I119292
sg20
g5
sg21
g5
sg22
g5
sg23
g5
sg24
g25
sg26
g25
sg27
g5
sg28
g5
sg29
I119292
sg30
g5
ssS'CAUSEY RICHARD A'
p417
(dp418
g3
I1892
sg4
g5
sg6
I30674
sg7
I01
sg8
I-235000
sg9
F2.4085416521150607
sg10
I350000
sg11
S'richard.causey@enron.com'
p419
sg13
g5
sg14
I1585
sg15
g5
sg16
I49
sg17
I307895
sg18
F0.20689655172413793
sg19
g5
sg20
I1000000
sg21
I2502063
sg22
I58
sg23
I12
sg24
F-0.5660072882470393
sg26
F4.833333333333333
sg27
I2502063
sg28
I415189
sg29
I1868758
sg30
g5
ssS'TAYLOR MITCHELL S'
p420
(dp421
g3
I533
sg4
I227449
sg6
g5
sg7
I00
sg8
g5
sg9
F2.2623240100447184
sg10
g5
sg11
S'mitchell.taylor@enron.com'
p422
sg13
g5
sg14
I300
sg15
g5
sg16
I29
sg17
g5
sg18
g25
sg19
g5
sg20
I600000
sg21
I3745048
sg22
I0
sg23
I0
sg24
g25
sg26
g25
sg27
I563798
sg28
I265214
sg29
I1092663
sg30
I3181250
ssS'DONAHUE JR JEFFREY M'
p423
(dp424
g3
I865
sg4
g5
sg6
I96268
sg7
I00
sg8
I-300000
sg9
F2.8714900520816506
sg10
g5
sg11
S'jeff.donahue@enron.com'
p425
sg13
g5
sg14
I772
sg15
g5
sg16
I22
sg17
I891
sg18
F0.05851063829787234
sg19
g5
sg20
I800000
sg21
I1080988
sg22
I188
sg23
I11
sg24
F-1.076808769530619
sg26
F17.09090909090909
sg27
I315068
sg28
I278601
sg29
I875760
sg30
I765920
ssS'GLISAN JR BEN F'
p426
(dp427
g3
I873
sg4
g5
sg6
I125978
sg7
I01
sg8
g5
sg9
F2.1820165469588146
sg10
I71023
sg11
S'ben.glisan@enron.com'
p428
sg13
g5
sg14
I874
sg15
g5
sg16
I16
sg17
I200308
sg18
F0.11538461538461539
sg19
g5
sg20
I600000
sg21
I778546
sg22
I52
sg23
I6
sg24
g25
sg26
F8.666666666666666
sg27
I393818
sg28
I274975
sg29
I1272284
sg30
I384728
ss.